target datalayout = "e-m:e-p270:32:32-p271:32:32-p272:64:64-i64:64-i128:128-f80:128-n8:16:32:64-S128"
target triple = "x86_64-pc-linux-gnu"

%struct.DdNode = type { i32, i32, ptr, %union.anon, i64 }
%union.anon = type { %struct.DdChildren }
%struct.DdChildren = type { ptr, ptr }

; Function Attrs: nounwind uwtable
define internal ptr @Aig_NotCond(ptr noundef %0, i32 noundef %1) #0 {
  %3 = alloca ptr, align 8
  %4 = alloca i32, align 4
  store ptr %0, ptr %3, align 8
  store i32 %1, ptr %4, align 4
  %5 = load ptr, ptr %3, align 8
  %6 = ptrtoint ptr %5 to i64
  %7 = load i32, ptr %4, align 4
  %8 = sext i32 %7 to i64
  %9 = xor i64 %6, %8
  %10 = inttoptr i64 %9 to ptr
  ret ptr %10
}

; Function Attrs: nounwind uwtable
define ptr @Aig_NodeBddToMuxes_rec(ptr noundef %0, ptr noundef %1, ptr noundef %2, ptr noundef %3) #0 {
  %5 = alloca ptr, align 8
  %6 = alloca ptr, align 8
  %7 = alloca ptr, align 8
  %8 = alloca ptr, align 8
  %9 = alloca ptr, align 8
  %10 = alloca ptr, align 8
  %11 = alloca ptr, align 8
  %12 = alloca ptr, align 8
  %13 = alloca ptr, align 8
  store ptr %0, ptr %6, align 8
  store ptr %1, ptr %7, align 8
  store ptr %2, ptr %8, align 8
  store ptr %3, ptr %9, align 8
  %14 = load ptr, ptr %9, align 8
  %15 = load ptr, ptr %7, align 8
  %16 = call i32 @st__lookup(ptr noundef %14, ptr noundef %15, ptr noundef %10)
  %17 = icmp ne i32 %16, 0
  br i1 %17, label %18, label %20

18:                                               ; preds = %4
  %19 = load ptr, ptr %10, align 8
  store ptr %19, ptr %5, align 8
  br label %69

20:                                               ; preds = %4
  %21 = load ptr, ptr %6, align 8
  %22 = load ptr, ptr %7, align 8
  %23 = getelementptr inbounds %struct.DdNode, ptr %22, i32 0, i32 3
  %24 = getelementptr inbounds %struct.DdChildren, ptr %23, i32 0, i32 1
  %25 = load ptr, ptr %24, align 8
  %26 = ptrtoint ptr %25 to i64
  %27 = and i64 %26, -2
  %28 = inttoptr i64 %27 to ptr
  %29 = load ptr, ptr %8, align 8
  %30 = load ptr, ptr %9, align 8
  %31 = call ptr @Aig_NodeBddToMuxes_rec(ptr noundef %21, ptr noundef %28, ptr noundef %29, ptr noundef %30)
  store ptr %31, ptr %11, align 8
  %32 = load ptr, ptr %11, align 8
  %33 = load ptr, ptr %7, align 8
  %34 = getelementptr inbounds %struct.DdNode, ptr %33, i32 0, i32 3
  %35 = getelementptr inbounds %struct.DdChildren, ptr %34, i32 0, i32 1
  %36 = load ptr, ptr %35, align 8
  %37 = ptrtoint ptr %36 to i64
  %38 = and i64 %37, 1
  %39 = trunc i64 %38 to i32
  %40 = call ptr @Aig_NotCond(ptr noundef %32, i32 noundef %39)
  store ptr %40, ptr %11, align 8
  %41 = load ptr, ptr %6, align 8
  %42 = load ptr, ptr %7, align 8
  %43 = getelementptr inbounds %struct.DdNode, ptr %42, i32 0, i32 3
  %44 = getelementptr inbounds %struct.DdChildren, ptr %43, i32 0, i32 0
  %45 = load ptr, ptr %44, align 8
  %46 = load ptr, ptr %8, align 8
  %47 = load ptr, ptr %9, align 8
  %48 = call ptr @Aig_NodeBddToMuxes_rec(ptr noundef %41, ptr noundef %45, ptr noundef %46, ptr noundef %47)
  store ptr %48, ptr %12, align 8
  %49 = load ptr, ptr %9, align 8
  %50 = load ptr, ptr %6, align 8
  %51 = load ptr, ptr %7, align 8
  %52 = getelementptr inbounds %struct.DdNode, ptr %51, i32 0, i32 0
  %53 = load i32, ptr %52, align 8
  %54 = call ptr @Cudd_bddIthVar(ptr noundef %50, i32 noundef %53)
  %55 = call i32 @st__lookup(ptr noundef %49, ptr noundef %54, ptr noundef %13)
  %56 = icmp ne i32 %55, 0
  br i1 %56, label %58, label %57

57:                                               ; preds = %20
  br label %58

58:                                               ; preds = %57, %20
  %59 = load ptr, ptr %8, align 8
  %60 = load ptr, ptr %13, align 8
  %61 = load ptr, ptr %12, align 8
  %62 = load ptr, ptr %11, align 8
  %63 = call ptr @Aig_Mux(ptr noundef %59, ptr noundef %60, ptr noundef %61, ptr noundef %62)
  store ptr %63, ptr %10, align 8
  %64 = load ptr, ptr %9, align 8
  %65 = load ptr, ptr %7, align 8
  %66 = load ptr, ptr %10, align 8
  %67 = call i32 @st__insert(ptr noundef %64, ptr noundef %65, ptr noundef %66)
  %68 = load ptr, ptr %10, align 8
  store ptr %68, ptr %5, align 8
  br label %69

69:                                               ; preds = %58, %18
  %70 = load ptr, ptr %5, align 8
  ret ptr %70
}