; Function Attrs: nounwind uwtable
define ptr @Aig_NodeBddToMuxes_rec(ptr noundef %0, ptr noundef %1, ptr noundef %2, ptr noundef %3) local_unnamed_addr #0 {
  %5 = alloca ptr, align 8
  %6 = alloca ptr, align 8
  %7 = call i32 @st__lookup(ptr noundef %3, ptr noundef %1, ptr noundef nonnull %5) #14
  %.not = icmp eq i32 %7, 0
  br i1 %.not, label %8, label %30

8:                                                ; preds = %4
  %9 = getelementptr inbounds nuw i8, ptr %1, i64 16
  %10 = getelementptr inbounds nuw i8, ptr %1, i64 24
  %11 = load ptr, ptr %10, align 8
  %12 = ptrtoint ptr %11 to i64
  %13 = and i64 %12, -2
  %14 = inttoptr i64 %13 to ptr
  %15 = call ptr @Aig_NodeBddToMuxes_rec(ptr noundef %0, ptr noundef %14, ptr noundef %2, ptr noundef %3)
  %16 = load ptr, ptr %10, align 8
  %17 = ptrtoint ptr %16 to i64
  %18 = and i64 %17, 1
  %19 = ptrtoint ptr %15 to i64
  %20 = xor i64 %18, %19
  %21 = inttoptr i64 %20 to ptr
  %22 = load ptr, ptr %9, align 8
  %23 = call ptr @Aig_NodeBddToMuxes_rec(ptr noundef %0, ptr noundef %22, ptr noundef %2, ptr noundef %3)
  %24 = load i32, ptr %1, align 8
  %25 = call ptr @Cudd_bddIthVar(ptr noundef %0, i32 noundef %24) #14
  %26 = call i32 @st__lookup(ptr noundef %3, ptr noundef %25, ptr noundef nonnull %6) #14
  %27 = load ptr, ptr %6, align 8
  %28 = call ptr @Aig_Mux(ptr noundef %2, ptr noundef %27, ptr noundef %23, ptr noundef %21) #14
  store ptr %28, ptr %5, align 8
  %29 = call i32 @st__insert(ptr noundef %3, ptr noundef nonnull %1, ptr noundef %28) #14
  br label %30

30:                                               ; preds = %4, %8
  %.0 = load ptr, ptr %5, align 8
  ret ptr %.0
}